; Function Attrs: mustprogress uwtable
define void @_ZN2cv4cuda6GpuMatC2EiiiPvm(ptr noundef nonnull writeonly align 8 captures(none) dereferenceable(64) initializes((0, 12), (16, 64)) %0, i32 noundef %1, i32 noundef %2, i32 noundef %3, ptr noundef %4, i64 noundef %5) unnamed_addr #0 align 2 {
  %7 = alloca [2 x i32], align 4
  %8 = alloca [2 x i64], align 16
  %9 = and i32 %3, 4095
  %10 = or disjoint i32 %9, 1124007936
  store i32 %10, ptr %0, align 8, !tbaa !17
  %11 = getelementptr inbounds nuw i8, ptr %0, i64 4
  store i32 %1, ptr %11, align 4, !tbaa !3
  %12 = getelementptr inbounds nuw i8, ptr %0, i64 8
  store i32 %2, ptr %12, align 8, !tbaa !14
  %13 = getelementptr inbounds nuw i8, ptr %0, i64 16
  store i64 %5, ptr %13, align 8, !tbaa !15
  %14 = getelementptr inbounds nuw i8, ptr %0, i64 24
  store ptr %4, ptr %14, align 8, !tbaa !18
  %15 = getelementptr inbounds nuw i8, ptr %0, i64 32
  store ptr null, ptr %15, align 8, !tbaa !19
  %16 = getelementptr inbounds nuw i8, ptr %0, i64 40
  store ptr %4, ptr %16, align 8, !tbaa !20
  %17 = getelementptr inbounds nuw i8, ptr %0, i64 56
  store ptr null, ptr %17, align 8, !tbaa !21
  %18 = sext i32 %2 to i64
  %19 = lshr i32 %3, 3
  %20 = and i32 %19, 511
  %21 = add nuw nsw i32 %20, 1
  %22 = shl nuw nsw i32 %9, 2
  %23 = and i32 %22, 28
  %24 = lshr i32 675553809, %23
  %25 = and i32 %24, 15
  %26 = mul nuw nsw i32 %25, %21
  %27 = zext nneg i32 %26 to i64
  %28 = mul nsw i64 %27, %18
  %29 = icmp eq i64 %5, 0
  %30 = icmp eq i32 %1, 1
  %or.cond = or i1 %29, %30
  br i1 %or.cond, label %.sink.split, label %31

.sink.split:                                      ; preds = %6
  store i64 %28, ptr %13, align 8, !tbaa !15
  br label %31

31:                                               ; preds = %6, %.sink.split
  %32 = phi i64 [ %28, %.sink.split ], [ %5, %6 ]
  %33 = getelementptr inbounds nuw i8, ptr %0, i64 48
  %34 = add nsw i32 %1, -1
  %35 = sext i32 %34 to i64
  %36 = mul i64 %32, %35
  %37 = getelementptr i8, ptr %4, i64 %36
  %38 = getelementptr i8, ptr %37, i64 %28
  store ptr %38, ptr %33, align 8, !tbaa !22
  call void @llvm.lifetime.start.p0(i64 8, ptr nonnull %7) #15
  store i32 %1, ptr %7, align 4, !tbaa !13
  %39 = getelementptr inbounds nuw i8, ptr %7, i64 4
  store i32 %2, ptr %39, align 4, !tbaa !13
  call void @llvm.lifetime.start.p0(i64 16, ptr nonnull %8) #15
  store i64 %32, ptr %8, align 16, !tbaa !16
  %40 = getelementptr inbounds nuw i8, ptr %8, i64 8
  store i64 %27, ptr %40, align 8, !tbaa !16
  %41 = call noundef i32 @_ZN2cv20updateContinuityFlagEiiPKiPKm(i32 noundef %10, i32 noundef 2, ptr noundef nonnull %7, ptr noundef nonnull %8)
  store i32 %41, ptr %0, align 8, !tbaa !17
  call void @llvm.lifetime.end.p0(i64 16, ptr nonnull %8) #15
  call void @llvm.lifetime.end.p0(i64 8, ptr nonnull %7) #15
  ret void
}